; Function Attrs: mustprogress nofree norecurse nosync nounwind willreturn memory(argmem: read) uwtable
define <2 x float> @_ZNK13b2PulleyJoint16GetReactionForceEf(ptr nocapture noundef nonnull readonly align 8 dereferenceable(256) %this, float noundef %inv_dt) unnamed_addr #7 align 2 {
entry:
  %m_impulse = getelementptr inbounds i8, ptr %this, i64 176
  %0 = load <4 x float>, ptr %m_impulse, align 8
  %m_uB = getelementptr inbounds i8, ptr %this, i64 196
  %1 = load <2 x float>, ptr %m_uB, align 4
  %2 = shufflevector <4 x float> %0, <4 x float> poison, <2 x i32> zeroinitializer
  %3 = fmul <2 x float> %2, %1
  %4 = insertelement <2 x float> poison, float %inv_dt, i64 0
  %5 = shufflevector <2 x float> %4, <2 x float> poison, <2 x i32> zeroinitializer
  %6 = fmul <2 x float> %3, %5
  ret <2 x float> %6
}